target datalayout = "e-m:e-p270:32:32-p271:32:32-p272:64:64-i64:64-i128:128-f80:128-n8:16:32:64-S128"
target triple = "x86_64-pc-linux-gnu"

%struct.ssl3_enc_method = type { ptr, ptr, ptr }
%struct.ssl_st = type { i32, i16, i16, ptr, ptr, ptr, ptr, ptr, i32, i32, ptr, ptr, i32, i32, ptr, ptr, ptr, ptr, ptr, ptr, ptr, ptr, i32, i32, [32 x i8], ptr, ptr, ptr, ptr, ptr, ptr, ptr, i64, %struct.crypto_ex_data_st, ptr, i32, i32, i32, i32, i16, ptr, i32, i64, ptr, ptr, ptr, ptr, ptr, ptr, i32, i32, ptr, ptr, i8, i8, i32 }
%struct.crypto_ex_data_st = type { ptr }
%struct.ssl3_state_st = type { [8 x i8], [8 x i8], [32 x i8], [32 x i8], i8, i8, %struct.ssl3_buffer_st, %struct.ssl3_buffer_st, %struct.ssl3_record_st, i8, i32, i32, i32, i32, ptr, ptr, %struct.env_md_ctx_st, %struct.env_md_ctx_st, i8, i32, [2 x i8], i32, i8, i8, ptr, ptr, ptr, %struct.anon, [64 x i8], i8, [64 x i8], i8, i32, i32, ptr, i64, ptr, i64, i8, [64 x i8] }
%struct.ssl3_buffer_st = type { ptr, i16, i16, i16 }
%struct.ssl3_record_st = type { i8, i16, ptr }
%struct.env_md_ctx_st = type { ptr, ptr, ptr, ptr }
%struct.anon = type { [64 x i8], i32, [64 x i8], i32, i64, i32, ptr, i32, i32, %union.anon, %union.anon.0, i8, i32, ptr, ptr, i64, ptr, i8, i8, i8, i8, i32, i8, ptr, i64, i8, ptr, i8, i8, i8, %struct.ssl_ecdh_ctx_st, ptr, i16 }
%union.anon = type { i32 }
%union.anon.0 = type { i16 }
%struct.ssl_ecdh_ctx_st = type { ptr, ptr }
%struct.ssl_session_st = type { i32, i32, i32, i32, [48 x i8], i32, [32 x i8], i32, [32 x i8], ptr, ptr, ptr, i64, i64, i64, ptr, %struct.crypto_ex_data_st, ptr, ptr, ptr, ptr, i64, i64, ptr, i64, ptr, [32 x i8], [64 x i8], i32, i32, i8 }

@.str = private unnamed_addr constant [14 x i8] c"key expansion\00", align 1
@.str.1 = private unnamed_addr constant [116 x i8] c"generated/home/dtcxzyw/WorkSpace/Projects/compilers/llvm-opt-benchmark/bench/libquic/libquic/boringssl/ssl/t1_enc.c\00", align 1

; Function Attrs: nounwind uwtable
define hidden i32 @SSL_generate_key_block(ptr noundef %0, ptr noundef %1, i64 noundef %2) #0 {
  %4 = alloca ptr, align 8
  %5 = alloca ptr, align 8
  %6 = alloca i64, align 8
  store ptr %0, ptr %4, align 8, !tbaa !6
  store ptr %1, ptr %5, align 8, !tbaa !57
  store i64 %2, ptr %6, align 8, !tbaa !53
  %7 = load ptr, ptr %4, align 8, !tbaa !6
  %8 = getelementptr inbounds nuw %struct.ssl_st, ptr %7, i32 0, i32 14
  %9 = load ptr, ptr %8, align 8, !tbaa !14
  %10 = getelementptr inbounds nuw %struct.ssl3_state_st, ptr %9, i32 0, i32 26
  %11 = load ptr, ptr %10, align 8, !tbaa !68
  %12 = getelementptr inbounds nuw %struct.ssl3_enc_method, ptr %11, i32 0, i32 0
  %13 = load ptr, ptr %12, align 8, !tbaa !69
  %14 = load ptr, ptr %4, align 8, !tbaa !6
  %15 = load ptr, ptr %5, align 8, !tbaa !57
  %16 = load i64, ptr %6, align 8, !tbaa !53
  %17 = load ptr, ptr %4, align 8, !tbaa !6
  %18 = getelementptr inbounds nuw %struct.ssl_st, ptr %17, i32 0, i32 25
  %19 = load ptr, ptr %18, align 8, !tbaa !63
  %20 = getelementptr inbounds nuw %struct.ssl_session_st, ptr %19, i32 0, i32 4
  %21 = getelementptr inbounds [48 x i8], ptr %20, i64 0, i64 0
  %22 = load ptr, ptr %4, align 8, !tbaa !6
  %23 = getelementptr inbounds nuw %struct.ssl_st, ptr %22, i32 0, i32 25
  %24 = load ptr, ptr %23, align 8, !tbaa !63
  %25 = getelementptr inbounds nuw %struct.ssl_session_st, ptr %24, i32 0, i32 3
  %26 = load i32, ptr %25, align 4, !tbaa !71
  %27 = sext i32 %26 to i64
  %28 = load ptr, ptr %4, align 8, !tbaa !6
  %29 = getelementptr inbounds nuw %struct.ssl_st, ptr %28, i32 0, i32 14
  %30 = load ptr, ptr %29, align 8, !tbaa !14
  %31 = getelementptr inbounds nuw %struct.ssl3_state_st, ptr %30, i32 0, i32 2
  %32 = getelementptr inbounds [32 x i8], ptr %31, i64 0, i64 0
  %33 = load ptr, ptr %4, align 8, !tbaa !6
  %34 = getelementptr inbounds nuw %struct.ssl_st, ptr %33, i32 0, i32 14
  %35 = load ptr, ptr %34, align 8, !tbaa !14
  %36 = getelementptr inbounds nuw %struct.ssl3_state_st, ptr %35, i32 0, i32 3
  %37 = getelementptr inbounds [32 x i8], ptr %36, i64 0, i64 0
  %38 = call i32 %13(ptr noundef %14, ptr noundef %15, i64 noundef %16, ptr noundef %21, i64 noundef %27, ptr noundef @.str, i64 noundef 13, ptr noundef %32, i64 noundef 32, ptr noundef %37, i64 noundef 32)
  ret i32 %38
}

; Function Attrs: nounwind uwtable
define hidden i64 @SSL_get_key_block_len(ptr noundef %0) #0 {
  %2 = alloca ptr, align 8
  store ptr %0, ptr %2, align 8, !tbaa !6
  %3 = load ptr, ptr %2, align 8, !tbaa !6
  %4 = getelementptr inbounds nuw %struct.ssl_st, ptr %3, i32 0, i32 14
  %5 = load ptr, ptr %4, align 8, !tbaa !14
  %6 = getelementptr inbounds nuw %struct.ssl3_state_st, ptr %5, i32 0, i32 27
  %7 = getelementptr inbounds nuw %struct.anon, ptr %6, i32 0, i32 18
  %8 = load i8, ptr %7, align 1, !tbaa !39
  %9 = zext i8 %8 to i64
  %10 = load ptr, ptr %2, align 8, !tbaa !6
  %11 = getelementptr inbounds nuw %struct.ssl_st, ptr %10, i32 0, i32 14
  %12 = load ptr, ptr %11, align 8, !tbaa !14
  %13 = getelementptr inbounds nuw %struct.ssl3_state_st, ptr %12, i32 0, i32 27
  %14 = getelementptr inbounds nuw %struct.anon, ptr %13, i32 0, i32 19
  %15 = load i8, ptr %14, align 2, !tbaa !54
  %16 = zext i8 %15 to i64
  %17 = add i64 %9, %16
  %18 = load ptr, ptr %2, align 8, !tbaa !6
  %19 = getelementptr inbounds nuw %struct.ssl_st, ptr %18, i32 0, i32 14
  %20 = load ptr, ptr %19, align 8, !tbaa !14
  %21 = getelementptr inbounds nuw %struct.ssl3_state_st, ptr %20, i32 0, i32 27
  %22 = getelementptr inbounds nuw %struct.anon, ptr %21, i32 0, i32 20
  %23 = load i8, ptr %22, align 1, !tbaa !55
  %24 = zext i8 %23 to i64
  %25 = add i64 %17, %24
  %26 = mul i64 2, %25
  ret i64 %26
}

; Function Attrs: nounwind uwtable
define hidden i32 @tls1_setup_key_block(ptr noundef %0) #0 {
  %2 = alloca i32, align 4
  %3 = alloca ptr, align 8
  %4 = alloca ptr, align 8
  %5 = alloca i64, align 8
  %6 = alloca i64, align 8
  %7 = alloca i32, align 4
  %8 = alloca i64, align 8
  %9 = alloca i64, align 8
  %10 = alloca ptr, align 8
  store ptr %0, ptr %3, align 8, !tbaa !6
  %11 = load ptr, ptr %3, align 8, !tbaa !6
  %12 = getelementptr inbounds nuw %struct.ssl_st, ptr %11, i32 0, i32 14
  %13 = load ptr, ptr %12, align 8, !tbaa !14
  %14 = getelementptr inbounds nuw %struct.ssl3_state_st, ptr %13, i32 0, i32 27
  %15 = getelementptr inbounds nuw %struct.anon, ptr %14, i32 0, i32 17
  %16 = load i8, ptr %15, align 8, !tbaa !60
  %17 = zext i8 %16 to i32
  %18 = icmp ne i32 %17, 0
  br i1 %18, label %19, label %20

19:                                               ; preds = %1
  store i32 1, ptr %2, align 4
  br label %111

20:                                               ; preds = %1
  call void @llvm.lifetime.start.p0(i64 8, ptr %4) #7
  store ptr null, ptr %4, align 8, !tbaa !61
  call void @llvm.lifetime.start.p0(i64 8, ptr %5) #7
  call void @llvm.lifetime.start.p0(i64 8, ptr %6) #7
  %21 = load ptr, ptr %3, align 8, !tbaa !6
  %22 = getelementptr inbounds nuw %struct.ssl_st, ptr %21, i32 0, i32 25
  %23 = load ptr, ptr %22, align 8, !tbaa !63
  %24 = getelementptr inbounds nuw %struct.ssl_session_st, ptr %23, i32 0, i32 15
  %25 = load ptr, ptr %24, align 8, !tbaa !64
  %26 = icmp eq ptr %25, null
  br i1 %26, label %37, label %27

27:                                               ; preds = %20
  %28 = load ptr, ptr %3, align 8, !tbaa !6
  %29 = getelementptr inbounds nuw %struct.ssl_st, ptr %28, i32 0, i32 25
  %30 = load ptr, ptr %29, align 8, !tbaa !63
  %31 = getelementptr inbounds nuw %struct.ssl_session_st, ptr %30, i32 0, i32 15
  %32 = load ptr, ptr %31, align 8, !tbaa !64
  %33 = load ptr, ptr %3, align 8, !tbaa !6
  %34 = call zeroext i16 @ssl3_protocol_version(ptr noundef %33)
  %35 = call i32 @ssl_cipher_get_evp_aead(ptr noundef %4, ptr noundef %5, ptr noundef %6, ptr noundef %32, i16 noundef zeroext %34)
  %36 = icmp ne i32 %35, 0
  br i1 %36, label %38, label %37

37:                                               ; preds = %27, %20
  call void @ERR_put_error(i32 noundef 16, i32 noundef 0, i32 noundef 130, ptr noundef @.str.1, i32 noundef 348)
  store i32 0, ptr %2, align 4
  store i32 1, ptr %7, align 4
  br label %110

38:                                               ; preds = %27
  call void @llvm.lifetime.start.p0(i64 8, ptr %8) #7
  %39 = load ptr, ptr %4, align 8, !tbaa !61
  %40 = call i64 @EVP_AEAD_key_length(ptr noundef %39)
  store i64 %40, ptr %8, align 8, !tbaa !53
  %41 = load i64, ptr %5, align 8, !tbaa !53
  %42 = icmp ugt i64 %41, 0
  br i1 %42, label %43, label %56

43:                                               ; preds = %38
  %44 = load i64, ptr %8, align 8, !tbaa !53
  %45 = load i64, ptr %5, align 8, !tbaa !53
  %46 = load i64, ptr %6, align 8, !tbaa !53
  %47 = add i64 %45, %46
  %48 = icmp ult i64 %44, %47
  br i1 %48, label %49, label %50

49:                                               ; preds = %43
  call void @ERR_put_error(i32 noundef 16, i32 noundef 0, i32 noundef 68, ptr noundef @.str.1, i32 noundef 357)
  store i32 0, ptr %2, align 4
  store i32 1, ptr %7, align 4
  br label %109

50:                                               ; preds = %43
  %51 = load i64, ptr %5, align 8, !tbaa !53
  %52 = load i64, ptr %6, align 8, !tbaa !53
  %53 = add i64 %51, %52
  %54 = load i64, ptr %8, align 8, !tbaa !53
  %55 = sub i64 %54, %53
  store i64 %55, ptr %8, align 8, !tbaa !53
  br label %56

56:                                               ; preds = %50, %38
  %57 = load i64, ptr %5, align 8, !tbaa !53
  %58 = trunc i64 %57 to i8
  %59 = load ptr, ptr %3, align 8, !tbaa !6
  %60 = getelementptr inbounds nuw %struct.ssl_st, ptr %59, i32 0, i32 14
  %61 = load ptr, ptr %60, align 8, !tbaa !14
  %62 = getelementptr inbounds nuw %struct.ssl3_state_st, ptr %61, i32 0, i32 27
  %63 = getelementptr inbounds nuw %struct.anon, ptr %62, i32 0, i32 18
  store i8 %58, ptr %63, align 1, !tbaa !39
  %64 = load i64, ptr %8, align 8, !tbaa !53
  %65 = trunc i64 %64 to i8
  %66 = load ptr, ptr %3, align 8, !tbaa !6
  %67 = getelementptr inbounds nuw %struct.ssl_st, ptr %66, i32 0, i32 14
  %68 = load ptr, ptr %67, align 8, !tbaa !14
  %69 = getelementptr inbounds nuw %struct.ssl3_state_st, ptr %68, i32 0, i32 27
  %70 = getelementptr inbounds nuw %struct.anon, ptr %69, i32 0, i32 19
  store i8 %65, ptr %70, align 2, !tbaa !54
  %71 = load i64, ptr %6, align 8, !tbaa !53
  %72 = trunc i64 %71 to i8
  %73 = load ptr, ptr %3, align 8, !tbaa !6
  %74 = getelementptr inbounds nuw %struct.ssl_st, ptr %73, i32 0, i32 14
  %75 = load ptr, ptr %74, align 8, !tbaa !14
  %76 = getelementptr inbounds nuw %struct.ssl3_state_st, ptr %75, i32 0, i32 27
  %77 = getelementptr inbounds nuw %struct.anon, ptr %76, i32 0, i32 20
  store i8 %72, ptr %77, align 1, !tbaa !55
  call void @llvm.lifetime.start.p0(i64 8, ptr %9) #7
  %78 = load ptr, ptr %3, align 8, !tbaa !6
  %79 = call i64 @SSL_get_key_block_len(ptr noundef %78)
  store i64 %79, ptr %9, align 8, !tbaa !53
  %80 = load ptr, ptr %3, align 8, !tbaa !6
  call void @ssl3_cleanup_key_block(ptr noundef %80)
  call void @llvm.lifetime.start.p0(i64 8, ptr %10) #7
  %81 = load i64, ptr %9, align 8, !tbaa !53
  %82 = call noalias ptr @malloc(i64 noundef %81) #8
  store ptr %82, ptr %10, align 8, !tbaa !57
  %83 = load ptr, ptr %10, align 8, !tbaa !57
  %84 = icmp eq ptr %83, null
  br i1 %84, label %85, label %86

85:                                               ; preds = %56
  call void @ERR_put_error(i32 noundef 16, i32 noundef 0, i32 noundef 65, ptr noundef @.str.1, i32 noundef 377)
  store i32 0, ptr %2, align 4
  store i32 1, ptr %7, align 4
  br label %108

86:                                               ; preds = %56
  %87 = load ptr, ptr %3, align 8, !tbaa !6
  %88 = load ptr, ptr %10, align 8, !tbaa !57
  %89 = load i64, ptr %9, align 8, !tbaa !53
  %90 = call i32 @SSL_generate_key_block(ptr noundef %87, ptr noundef %88, i64 noundef %89)
  %91 = icmp ne i32 %90, 0
  br i1 %91, label %94, label %92

92:                                               ; preds = %86
  %93 = load ptr, ptr %10, align 8, !tbaa !57
  call void @free(ptr noundef %93) #7
  store i32 0, ptr %2, align 4
  store i32 1, ptr %7, align 4
  br label %108

94:                                               ; preds = %86
  %95 = load i64, ptr %9, align 8, !tbaa !53
  %96 = trunc i64 %95 to i8
  %97 = load ptr, ptr %3, align 8, !tbaa !6
  %98 = getelementptr inbounds nuw %struct.ssl_st, ptr %97, i32 0, i32 14
  %99 = load ptr, ptr %98, align 8, !tbaa !14
  %100 = getelementptr inbounds nuw %struct.ssl3_state_st, ptr %99, i32 0, i32 27
  %101 = getelementptr inbounds nuw %struct.anon, ptr %100, i32 0, i32 17
  store i8 %96, ptr %101, align 8, !tbaa !60
  %102 = load ptr, ptr %10, align 8, !tbaa !57
  %103 = load ptr, ptr %3, align 8, !tbaa !6
  %104 = getelementptr inbounds nuw %struct.ssl_st, ptr %103, i32 0, i32 14
  %105 = load ptr, ptr %104, align 8, !tbaa !14
  %106 = getelementptr inbounds nuw %struct.ssl3_state_st, ptr %105, i32 0, i32 27
  %107 = getelementptr inbounds nuw %struct.anon, ptr %106, i32 0, i32 16
  store ptr %102, ptr %107, align 8, !tbaa !56
  store i32 1, ptr %2, align 4
  store i32 1, ptr %7, align 4
  br label %108

108:                                              ; preds = %94, %92, %85
  call void @llvm.lifetime.end.p0(i64 8, ptr %10) #7
  call void @llvm.lifetime.end.p0(i64 8, ptr %9) #7
  br label %109

109:                                              ; preds = %108, %49
  call void @llvm.lifetime.end.p0(i64 8, ptr %8) #7
  br label %110

110:                                              ; preds = %109, %37
  call void @llvm.lifetime.end.p0(i64 8, ptr %6) #7
  call void @llvm.lifetime.end.p0(i64 8, ptr %5) #7
  call void @llvm.lifetime.end.p0(i64 8, ptr %4) #7
  br label %111

111:                                              ; preds = %110, %19
  %112 = load i32, ptr %2, align 4
  ret i32 %112
}