; Function Attrs: nounwind uwtable
define hidden range(i32 0, 2) i32 @tls1_setup_key_block(ptr noundef %0) local_unnamed_addr #0 {
  %2 = alloca ptr, align 8
  %3 = alloca i64, align 8
  %4 = alloca i64, align 8
  %5 = getelementptr inbounds nuw i8, ptr %0, i64 80
  %6 = load ptr, ptr %5, align 8, !tbaa !6
  %7 = getelementptr inbounds nuw i8, ptr %6, i64 504
  %8 = load i8, ptr %7, align 8, !tbaa !53
  %.not = icmp eq i8 %8, 0
  br i1 %.not, label %9, label %66

9:                                                ; preds = %1
  call void @llvm.lifetime.start.p0(i64 8, ptr nonnull %2) #8
  store ptr null, ptr %2, align 8, !tbaa !54
  call void @llvm.lifetime.start.p0(i64 8, ptr nonnull %3) #8
  call void @llvm.lifetime.start.p0(i64 8, ptr nonnull %4) #8
  %10 = getelementptr inbounds nuw i8, ptr %0, i64 184
  %11 = load ptr, ptr %10, align 8, !tbaa !56
  %12 = getelementptr inbounds nuw i8, ptr %11, i64 184
  %13 = load ptr, ptr %12, align 8, !tbaa !57
  %14 = icmp eq ptr %13, null
  br i1 %14, label %18, label %15

15:                                               ; preds = %9
  %16 = tail call zeroext i16 @ssl3_protocol_version(ptr noundef nonnull %0) #8
  %17 = call i32 @ssl_cipher_get_evp_aead(ptr noundef nonnull %2, ptr noundef nonnull %3, ptr noundef nonnull %4, ptr noundef nonnull %13, i16 noundef zeroext %16) #8
  %.not28 = icmp eq i32 %17, 0
  br i1 %.not28, label %18, label %19

18:                                               ; preds = %15, %9
  call void @ERR_put_error(i32 noundef 16, i32 noundef 0, i32 noundef 130, ptr noundef nonnull @.str.1, i32 noundef 348) #8
  br label %65

19:                                               ; preds = %15
  %20 = load ptr, ptr %2, align 8, !tbaa !54
  %21 = call i64 @EVP_AEAD_key_length(ptr noundef %20) #8
  %22 = load i64, ptr %3, align 8, !tbaa !61
  %.not29 = icmp eq i64 %22, 0
  %.pre = load i64, ptr %4, align 8, !tbaa !61
  br i1 %.not29, label %29, label %23

23:                                               ; preds = %19
  %24 = add i64 %.pre, %22
  %25 = icmp ult i64 %21, %24
  br i1 %25, label %26, label %27

26:                                               ; preds = %23
  call void @ERR_put_error(i32 noundef 16, i32 noundef 0, i32 noundef 68, ptr noundef nonnull @.str.1, i32 noundef 357) #8
  br label %65

27:                                               ; preds = %23
  %28 = sub nuw i64 %21, %24
  br label %29

29:                                               ; preds = %27, %19
  %.022 = phi i64 [ %28, %27 ], [ %21, %19 ]
  %30 = trunc i64 %22 to i8
  %31 = load ptr, ptr %5, align 8, !tbaa !6
  %32 = getelementptr inbounds nuw i8, ptr %31, i64 505
  store i8 %30, ptr %32, align 1, !tbaa !35
  %33 = trunc i64 %.022 to i8
  %34 = getelementptr inbounds nuw i8, ptr %31, i64 506
  store i8 %33, ptr %34, align 2, !tbaa !49
  %35 = trunc i64 %.pre to i8
  %36 = getelementptr inbounds nuw i8, ptr %31, i64 507
  store i8 %35, ptr %36, align 1, !tbaa !50
  %37 = and i64 %22, 255
  %38 = and i64 %.022, 255
  %39 = add nuw nsw i64 %38, %37
  %40 = and i64 %.pre, 255
  %41 = add nuw nsw i64 %39, %40
  %42 = shl nuw nsw i64 %41, 1
  call void @ssl3_cleanup_key_block(ptr noundef nonnull %0) #8
  %43 = call noalias ptr @malloc(i64 noundef %42) #9
  %44 = icmp eq ptr %43, null
  br i1 %44, label %45, label %46

45:                                               ; preds = %29
  call void @ERR_put_error(i32 noundef 16, i32 noundef 0, i32 noundef 65, ptr noundef nonnull @.str.1, i32 noundef 377) #8
  br label %65

46:                                               ; preds = %29
  %47 = load ptr, ptr %5, align 8, !tbaa !6
  %48 = getelementptr inbounds nuw i8, ptr %47, i64 280
  %49 = load ptr, ptr %48, align 8, !tbaa !62
  %50 = load ptr, ptr %49, align 8, !tbaa !63
  %51 = load ptr, ptr %10, align 8, !tbaa !56
  %52 = getelementptr inbounds nuw i8, ptr %51, i64 16
  %53 = getelementptr inbounds nuw i8, ptr %51, i64 12
  %54 = load i32, ptr %53, align 4, !tbaa !65
  %55 = sext i32 %54 to i64
  %56 = getelementptr inbounds nuw i8, ptr %47, i64 16
  %57 = getelementptr inbounds nuw i8, ptr %47, i64 48
  %58 = call i32 %50(ptr noundef nonnull %0, ptr noundef nonnull %43, i64 noundef %42, ptr noundef nonnull %52, i64 noundef %55, ptr noundef nonnull @.str, i64 noundef 13, ptr noundef nonnull %56, i64 noundef 32, ptr noundef nonnull %57, i64 noundef 32) #8
  %.not30 = icmp eq i32 %58, 0
  br i1 %.not30, label %59, label %60

59:                                               ; preds = %46
  call void @free(ptr noundef nonnull %43) #8
  br label %65

60:                                               ; preds = %46
  %61 = trunc i64 %42 to i8
  %62 = load ptr, ptr %5, align 8, !tbaa !6
  %63 = getelementptr inbounds nuw i8, ptr %62, i64 504
  store i8 %61, ptr %63, align 8, !tbaa !53
  %64 = getelementptr inbounds nuw i8, ptr %62, i64 496
  store ptr %43, ptr %64, align 8, !tbaa !51
  br label %65

65:                                               ; preds = %26, %60, %59, %45, %18
  %.1 = phi i32 [ 0, %18 ], [ 0, %26 ], [ 0, %45 ], [ 1, %60 ], [ 0, %59 ]
  call void @llvm.lifetime.end.p0(i64 8, ptr nonnull %4) #8
  call void @llvm.lifetime.end.p0(i64 8, ptr nonnull %3) #8
  call void @llvm.lifetime.end.p0(i64 8, ptr nonnull %2) #8
  br label %66

66:                                               ; preds = %1, %65
  %.0 = phi i32 [ %.1, %65 ], [ 1, %1 ]
  ret i32 %.0
}